Certificate:
    Data:
        Version: 3 (0x2)
        Serial Number: 4097 (0x1001)
        Signature Algorithm: sha256WithRSAEncryption
        Issuer: CN=Root Signing CA, O=openziti.org Inc, OU=adv-dev, C=US, ST=NC
        Validity
            Not Before: Feb 13 17:02:28 2024 GMT
            Not After : Feb 15 17:02:28 2027 GMT
        Subject: C=US, ST=NC, O=openziti.org Inc, OU=adv-dev, CN=openziti.org Code Signing Certificate 2024
        Subject Public Key Info:
            Public Key Algorithm: rsaEncryption
                Public-Key: (4096 bit)
                Modulus:
                    00:bd:b0:9a:34:20:27:04:91:88:09:ef:28:15:a2:
                    79:2c:95:3f:96:62:1d:90:8a:2e:2b:aa:68:0c:a6:
                    0f:b5:8d:e3:4d:71:9b:85:75:9f:3c:8d:fb:93:7c:
                    d2:7f:e7:13:c7:b3:6a:1b:09:c8:4d:63:85:9a:37:
                    24:d8:c9:dd:c7:14:d1:6e:6d:65:d7:da:21:91:45:
                    85:f6:f1:dc:b7:a0:cf:b9:f7:61:34:45:4a:a3:3c:
                    e8:13:d5:51:07:de:e8:db:92:92:8c:c1:ec:c9:c9:
                    0e:2c:73:81:e5:9a:57:9c:ca:b3:cb:78:9c:c3:16:
                    95:ce:bf:97:95:c2:b0:28:52:84:ef:01:0e:d5:6c:
                    9e:f0:0a:e2:55:53:17:fc:b2:04:ea:a4:9c:a9:62:
                    76:b2:f3:dc:cf:2a:64:d8:b1:79:79:bb:8e:a2:5a:
                    76:91:bc:14:4a:97:87:66:74:83:26:8b:20:8d:53:
                    68:d4:64:7a:92:d1:de:3e:81:04:ed:cc:e6:f9:40:
                    0e:52:72:11:d5:db:ad:08:96:c7:77:b9:b3:23:44:
                    51:7e:f4:ff:c1:68:38:98:37:9d:1f:50:2b:f2:a7:
                    e0:57:cc:95:ca:c1:6f:a7:49:95:04:b8:d0:e7:9a:
                    b1:b9:da:62:8f:db:bc:67:2a:29:87:3f:cb:1b:c4:
                    2c:37:99:2a:4e:5a:14:6f:88:80:b3:8a:73:42:e5:
                    f7:be:54:08:aa:fb:32:42:bb:41:d6:dc:16:68:dc:
                    1d:09:16:09:77:dc:51:ff:c1:fb:4f:2c:29:28:a4:
                    65:88:32:47:58:13:76:b1:f0:ac:32:94:6b:89:0b:
                    88:d4:ab:ac:63:e7:1d:e2:b8:0b:45:e7:14:ca:d3:
                    e0:56:d2:00:34:68:39:dc:c3:f1:d5:dd:77:e1:88:
                    fe:31:8b:1d:1e:73:62:2f:7d:a6:31:89:87:1b:78:
                    3c:27:b8:28:b8:12:d8:00:32:ef:cf:d6:3c:94:8c:
                    02:c2:fb:ed:ef:d1:70:21:52:c5:e1:09:67:3f:01:
                    ff:25:13:2a:7f:39:d9:96:c0:c6:47:34:71:5b:c9:
                    57:64:a7:7f:e8:61:75:eb:20:92:e8:2a:eb:91:4a:
                    cf:e7:fb:19:2c:0e:e1:c6:73:aa:05:7f:df:ff:b6:
                    ea:fb:40:c3:4a:ed:5c:6b:58:fe:45:dd:ac:c7:91:
                    1b:b9:5f:9a:b1:ca:1a:44:3e:85:83:3a:c8:1c:8f:
                    a8:26:c0:5c:52:cc:e3:ea:af:a4:d8:12:46:62:6b:
                    69:a3:d9:10:00:d5:d3:08:48:f5:20:a2:ca:0c:e5:
                    ee:ec:eb:d8:1f:c1:c5:2a:68:2b:68:dd:51:c1:f6:
                    be:2e:b3
                Exponent: 65537 (0x10001)
        X509v3 extensions:
            X509v3 Authority Key Identifier: 
                B4:BF:93:98:07:2D:7A:50:4C:3B:93:B9:CC:2E:0E:D8:DC:5B:3B:B8
            X509v3 Basic Constraints: 
                CA:FALSE
            X509v3 Key Usage: 
                Digital Signature
            X509v3 Extended Key Usage: 
                Code Signing
            X509v3 CRL Distribution Points: 
                Full Name:
                  URI:https://openziti.github.io/crl/openziti.crl
            X509v3 Subject Key Identifier: 
                7A:28:39:DA:11:4D:90:76:FD:DA:2A:C6:FA:F8:EB:03:E8:BF:9C:22
    Signature Algorithm: sha256WithRSAEncryption
    Signature Value:
        65:cc:89:f8:46:5c:81:ec:ab:82:ef:a0:e9:52:d8:b8:b2:a3:
        87:8d:af:2d:59:f6:c8:d4:8b:ab:c1:a9:64:f1:f3:9d:f3:90:
        c6:b4:ec:93:81:02:71:a5:97:28:0e:41:b7:9b:51:28:07:ea:
        4d:22:29:8f:7e:de:1a:ad:15:26:fa:d0:da:d3:dd:e7:16:22:
        db:0e:ec:86:cf:5a:26:ea:ba:02:d1:d0:00:46:19:95:49:77:
        21:27:e2:52:23:c1:8f:d0:3f:16:fa:e1:bf:da:4a:1b:f7:9c:
        1b:70:26:48:4c:6c:cd:f4:f9:33:71:4b:8a:b8:5c:0e:1a:8b:
        21:9b:31:d8:f3:81:2e:b2:ca:81:7c:3e:1c:0d:fb:36:70:dc:
        74:ee:81:da:d6:50:a8:ba:c3:ab:d5:b7:40:a5:03:57:b4:0e:
        7b:a9:5f:32:10:52:fe:56:9c:27:fb:40:b3:50:13:f4:65:cf:
        52:fa:0e:da:ca:99:eb:7c:4b:cd:ea:92:dd:f3:2e:36:d1:54:
        0b:28:8e:2d:69:aa:99:fe:ab:4c:12:8f:30:d8:5c:2a:f5:4c:
        39:8d:e0:65:14:ab:88:8c:bc:d1:dd:69:c3:bb:f7:49:12:cc:
        fb:99:47:79:d2:a8:70:5d:cc:9c:c7:6f:eb:f9:55:03:84:09:
        63:c5:b8:a0:10:9a:31:a0:48:fc:9d:79:df:04:0b:6f:7d:47:
        b9:90:8c:05:b9:cb:7f:3c:9b:1d:b6:09:02:e8:ad:49:c2:8f:
        5c:6b:f2:a4:8f:a9:8c:90:d2:65:75:45:5b:a7:64:ff:3e:cf:
        a5:91:e0:9f:c2:b9:4c:d3:83:a9:fd:c6:ce:55:df:0e:ac:29:
        fd:55:5d:69:5d:a8:93:09:63:c3:4d:ec:1f:95:37:17:ca:b1:
        9e:f6:4c:98:da:d1:6e:91:7b:9d:bc:af:01:c9:ca:5b:b7:b0:
        8b:ec:26:31:30:b6:37:63:d9:31:db:ab:76:6e:d6:6a:b1:59:
        93:c1:70:0e:5b:4b:08:46:0b:a8:5a:a2:ae:f7:2e:2e:6d:34:
        00:2e:96:54:69:10:3d:e9:35:de:e7:4a:60:31:cd:ae:94:69:
        f0:d0:09:99:5f:83:8d:3e:fa:cf:80:5b:98:5b:81:a4:9d:00:
        a4:91:e4:51:b4:ee:61:4e:23:00:88:69:09:4e:de:5c:41:95:
        49:8f:a7:3b:0d:90:4c:fe:ba:5a:90:0a:f9:cf:93:1a:87:eb:
        06:b9:b9:a8:b3:60:be:ce:76:48:88:1d:6e:07:91:0c:c6:6e:
        93:43:7d:18:4a:55:60:32:ab:ca:8c:5f:ce:07:5b:8e:98:e7:
        87:f1:7b:34:a8:7c:8b:b1
-----BEGIN CERTIFICATE-----
MIIGCDCCA/CgAwIBAgICEAEwDQYJKoZIhvcNAQELBQAwYTEYMBYGA1UEAwwPUm9v
dCBTaWduaW5nIENBMRkwFwYDVQQKDBBvcGVueml0aS5vcmcgSW5jMRAwDgYDVQQL
DAdhZHYtZGV2MQswCQYDVQQGEwJVUzELMAkGA1UECAwCTkMwHhcNMjQwMjEzMTcw
MjI4WhcNMjcwMjE1MTcwMjI4WjB8MQswCQYDVQQGEwJVUzELMAkGA1UECAwCTkMx
GTAXBgNVBAoMEG9wZW56aXRpLm9yZyBJbmMxEDAOBgNVBAsMB2Fkdi1kZXYxMzAx
BgNVBAMMKm9wZW56aXRpLm9yZyBDb2RlIFNpZ25pbmcgQ2VydGlmaWNhdGUgMjAy
NDCCAiIwDQYJKoZIhvcNAQEBBQADggIPADCCAgoCggIBAL2wmjQgJwSRiAnvKBWi
eSyVP5ZiHZCKLiuqaAymD7WN401xm4V1nzyN+5N80n/nE8ezahsJyE1jhZo3JNjJ
3ccU0W5tZdfaIZFFhfbx3Legz7n3YTRFSqM86BPVUQfe6NuSkozB7MnJDixzgeWa
V5zKs8t4nMMWlc6/l5XCsChShO8BDtVsnvAK4lVTF/yyBOqknKlidrLz3M8qZNix
eXm7jqJadpG8FEqXh2Z0gyaLII1TaNRkepLR3j6BBO3M5vlADlJyEdXbrQiWx3e5
syNEUX70/8FoOJg3nR9QK/Kn4FfMlcrBb6dJlQS40OeasbnaYo/bvGcqKYc/yxvE
LDeZKk5aFG+IgLOKc0Ll975UCKr7MkK7QdbcFmjcHQkWCXfcUf/B+08sKSikZYgy
R1gTdrHwrDKUa4kLiNSrrGPnHeK4C0XnFMrT4FbSADRoOdzD8dXdd+GI/jGLHR5z
Yi99pjGJhxt4PCe4KLgS2AAy78/WPJSMAsL77e/RcCFSxeEJZz8B/yUTKn852ZbA
xkc0cVvJV2Snf+hhdesgkugq65FKz+f7GSwO4cZzqgV/3/+26vtAw0rtXGtY/kXd
rMeRG7lfmrHKGkQ+hYM6yByPqCbAXFLM4+qvpNgSRmJraaPZEADV0whI9SCiygzl
7uzr2B/BxSpoK2jdUcH2vi6zAgMBAAGjga4wgaswHwYDVR0jBBgwFoAUtL+TmAct
elBMO5O5zC4O2NxbO7gwCQYDVR0TBAIwADALBgNVHQ8EBAMCB4AwEwYDVR0lBAww
CgYIKwYBBQUHAwMwPAYDVR0fBDUwMzAxoC+gLYYraHR0cHM6Ly9vcGVueml0aS5n
aXRodWIuaW8vY3JsL29wZW56aXRpLmNybDAdBgNVHQ4EFgQUeig52hFNkHb92irG
+vjrA+i/nCIwDQYJKoZIhvcNAQELBQADggIBAGXMifhGXIHsq4LvoOlS2Liyo4eN
ry1Z9sjUi6vBqWTx853zkMa07JOBAnGllygOQbebUSgH6k0iKY9+3hqtFSb60NrT
3ecWItsO7IbPWibqugLR0ABGGZVJdyEn4lIjwY/QPxb64b/aShv3nBtwJkhMbM30
+TNxS4q4XA4aiyGbMdjzgS6yyoF8PhwN+zZw3HTugdrWUKi6w6vVt0ClA1e0Dnup
XzIQUv5WnCf7QLNQE/Rlz1L6DtrKmet8S83qkt3zLjbRVAsoji1pqpn+q0wSjzDY
XCr1TDmN4GUUq4iMvNHdacO790kSzPuZR3nSqHBdzJzHb+v5VQOECWPFuKAQmjGg
SPyded8EC299R7mQjAW5y388mx22CQLorUnCj1xr8qSPqYyQ0mV1RVunZP8+z6WR
4J/CuUzTg6n9xs5V3w6sKf1VXWldqJMJY8NN7B+VNxfKsZ72TJja0W6Re528rwHJ
ylu3sIvsJjEwtjdj2THbq3Zu1mqxWZPBcA5bSwhGC6haoq73Li5tNAAullRpED3p
Nd7nSmAxza6UafDQCZlfg40++s+AW5hbgaSdAKSR5FG07mFOIwCIaQlO3lxBlUmP
pzsNkEz+ulqQCvnPkxqH6wa5uaizYL7OdkiIHW4HkQzGbpNDfRhKVWAyq8qMX84H
W46Y54fxezSofIux
-----END CERTIFICATE-----
