Certificate:
    Data:
        Version: 3 (0x2)
        Serial Number: 4096 (0x1000)
        Signature Algorithm: sha256WithRSAEncryption
        Issuer: CN=Root Signing CA, O=openziti.org Inc, OU=adv-dev, C=US, ST=NC
        Validity
            Not Before: Jun  3 19:03:31 2021 GMT
            Not After : Jun  5 19:03:31 2024 GMT
        Subject: C=US, ST=NC, O=openziti.org Inc, OU=adv-dev, CN=openziti.org Code Signing Certificate 2021
        Subject Public Key Info:
            Public Key Algorithm: rsaEncryption
                RSA Public-Key: (4096 bit)
                Modulus:
                    00:bd:b0:9a:34:20:27:04:91:88:09:ef:28:15:a2:
                    79:2c:95:3f:96:62:1d:90:8a:2e:2b:aa:68:0c:a6:
                    0f:b5:8d:e3:4d:71:9b:85:75:9f:3c:8d:fb:93:7c:
                    d2:7f:e7:13:c7:b3:6a:1b:09:c8:4d:63:85:9a:37:
                    24:d8:c9:dd:c7:14:d1:6e:6d:65:d7:da:21:91:45:
                    85:f6:f1:dc:b7:a0:cf:b9:f7:61:34:45:4a:a3:3c:
                    e8:13:d5:51:07:de:e8:db:92:92:8c:c1:ec:c9:c9:
                    0e:2c:73:81:e5:9a:57:9c:ca:b3:cb:78:9c:c3:16:
                    95:ce:bf:97:95:c2:b0:28:52:84:ef:01:0e:d5:6c:
                    9e:f0:0a:e2:55:53:17:fc:b2:04:ea:a4:9c:a9:62:
                    76:b2:f3:dc:cf:2a:64:d8:b1:79:79:bb:8e:a2:5a:
                    76:91:bc:14:4a:97:87:66:74:83:26:8b:20:8d:53:
                    68:d4:64:7a:92:d1:de:3e:81:04:ed:cc:e6:f9:40:
                    0e:52:72:11:d5:db:ad:08:96:c7:77:b9:b3:23:44:
                    51:7e:f4:ff:c1:68:38:98:37:9d:1f:50:2b:f2:a7:
                    e0:57:cc:95:ca:c1:6f:a7:49:95:04:b8:d0:e7:9a:
                    b1:b9:da:62:8f:db:bc:67:2a:29:87:3f:cb:1b:c4:
                    2c:37:99:2a:4e:5a:14:6f:88:80:b3:8a:73:42:e5:
                    f7:be:54:08:aa:fb:32:42:bb:41:d6:dc:16:68:dc:
                    1d:09:16:09:77:dc:51:ff:c1:fb:4f:2c:29:28:a4:
                    65:88:32:47:58:13:76:b1:f0:ac:32:94:6b:89:0b:
                    88:d4:ab:ac:63:e7:1d:e2:b8:0b:45:e7:14:ca:d3:
                    e0:56:d2:00:34:68:39:dc:c3:f1:d5:dd:77:e1:88:
                    fe:31:8b:1d:1e:73:62:2f:7d:a6:31:89:87:1b:78:
                    3c:27:b8:28:b8:12:d8:00:32:ef:cf:d6:3c:94:8c:
                    02:c2:fb:ed:ef:d1:70:21:52:c5:e1:09:67:3f:01:
                    ff:25:13:2a:7f:39:d9:96:c0:c6:47:34:71:5b:c9:
                    57:64:a7:7f:e8:61:75:eb:20:92:e8:2a:eb:91:4a:
                    cf:e7:fb:19:2c:0e:e1:c6:73:aa:05:7f:df:ff:b6:
                    ea:fb:40:c3:4a:ed:5c:6b:58:fe:45:dd:ac:c7:91:
                    1b:b9:5f:9a:b1:ca:1a:44:3e:85:83:3a:c8:1c:8f:
                    a8:26:c0:5c:52:cc:e3:ea:af:a4:d8:12:46:62:6b:
                    69:a3:d9:10:00:d5:d3:08:48:f5:20:a2:ca:0c:e5:
                    ee:ec:eb:d8:1f:c1:c5:2a:68:2b:68:dd:51:c1:f6:
                    be:2e:b3
                Exponent: 65537 (0x10001)
        X509v3 extensions:
            X509v3 Authority Key Identifier: 
                keyid:B4:BF:93:98:07:2D:7A:50:4C:3B:93:B9:CC:2E:0E:D8:DC:5B:3B:B8

            X509v3 Basic Constraints: 
                CA:FALSE
            X509v3 Key Usage: 
                Digital Signature
            X509v3 Extended Key Usage: 
                Code Signing
            X509v3 CRL Distribution Points: 

                Full Name:
                  URI:https://openziti.github.io/crl/openziti.crl

    Signature Algorithm: sha256WithRSAEncryption
         0c:a2:33:e3:ce:85:75:93:24:db:25:32:54:fb:62:50:a0:ab:
         e3:a3:9f:57:50:2f:a2:9c:ef:d9:98:97:c5:6f:b1:89:e3:f0:
         7f:56:ed:59:34:22:25:4c:40:15:26:70:84:3a:6c:60:91:79:
         03:ea:c2:ab:0d:d7:23:f5:97:43:44:36:d0:e0:29:65:cf:a9:
         5a:0e:e4:00:b2:35:a4:ff:a4:06:dc:1f:d2:04:ea:11:51:e8:
         84:74:28:9d:74:c3:05:ad:53:ba:23:21:d3:62:3a:d0:f7:5d:
         a2:2f:68:7f:fd:94:5a:eb:f3:2b:7b:fe:1b:01:ba:46:2e:d7:
         9d:f1:3e:38:a9:0e:b6:9c:2c:8b:9d:85:bc:46:1b:4b:3d:0b:
         06:ee:34:a6:79:7b:27:2c:11:5b:ea:a4:92:7f:55:6f:56:d9:
         0b:21:a9:c8:10:23:92:df:66:6c:bd:e3:9b:b9:0b:40:61:21:
         af:7f:b1:cd:fd:ec:ca:a3:85:21:09:ec:d2:3e:bb:aa:a0:40:
         1d:c7:b1:2e:f5:f6:68:8d:f3:52:80:98:b5:9c:de:7c:60:1c:
         5a:31:68:89:42:f5:c6:44:76:0b:9a:5e:43:a6:f2:c0:9e:f0:
         7b:f1:55:05:0e:97:39:ed:4a:cd:22:3e:db:0b:da:44:2b:48:
         62:7d:27:98:91:5f:5d:3d:c5:f4:61:b6:72:b9:87:e2:25:27:
         ea:9d:b7:88:d6:5d:90:cf:4f:cd:cf:3a:e5:24:f2:21:f7:8b:
         07:2e:61:4a:fa:93:3f:56:ce:aa:57:bf:80:0a:81:f2:ba:1f:
         bf:38:98:74:9b:ec:bc:b6:1f:78:68:ec:b9:ba:de:48:1e:03:
         3d:a5:a4:f0:3b:43:c8:37:e1:a6:6f:cb:bf:4f:5b:e4:65:57:
         10:3d:f8:bc:03:49:38:20:08:16:f9:8b:93:ab:bd:b2:b3:fe:
         2a:cf:c7:c9:7e:53:35:a2:47:4a:57:7d:12:90:99:ca:ed:c4:
         a4:2a:66:b8:cd:14:b7:c8:ac:d5:e7:d3:c8:4f:2b:72:63:ef:
         c9:e3:1f:f7:5f:86:24:d7:4e:70:3a:82:58:80:85:fc:07:30:
         ae:1a:86:be:a7:d6:d0:d9:e2:44:13:19:f6:d6:a0:9d:7e:87:
         7d:03:f6:85:16:6a:24:23:93:e8:ce:db:e3:63:ff:dd:6c:0a:
         1b:1e:e8:57:f7:a4:c2:b6:9c:85:e0:f3:1a:5c:31:b0:3a:6d:
         fe:2f:1d:2f:a3:73:9f:f9:14:53:ea:04:5b:8e:bf:19:d1:b0:
         2e:52:d9:6f:22:22:c5:29:09:68:da:90:51:14:15:a0:4f:2e:
         ba:e5:41:f6:ef:3d:80:c0
-----BEGIN CERTIFICATE-----
MIIF6TCCA9GgAwIBAgICEAAwDQYJKoZIhvcNAQELBQAwYTEYMBYGA1UEAwwPUm9v
dCBTaWduaW5nIENBMRkwFwYDVQQKDBBvcGVueml0aS5vcmcgSW5jMRAwDgYDVQQL
DAdhZHYtZGV2MQswCQYDVQQGEwJVUzELMAkGA1UECAwCTkMwHhcNMjEwNjAzMTkw
MzMxWhcNMjQwNjA1MTkwMzMxWjB8MQswCQYDVQQGEwJVUzELMAkGA1UECAwCTkMx
GTAXBgNVBAoMEG9wZW56aXRpLm9yZyBJbmMxEDAOBgNVBAsMB2Fkdi1kZXYxMzAx
BgNVBAMMKm9wZW56aXRpLm9yZyBDb2RlIFNpZ25pbmcgQ2VydGlmaWNhdGUgMjAy
MTCCAiIwDQYJKoZIhvcNAQEBBQADggIPADCCAgoCggIBAL2wmjQgJwSRiAnvKBWi
eSyVP5ZiHZCKLiuqaAymD7WN401xm4V1nzyN+5N80n/nE8ezahsJyE1jhZo3JNjJ
3ccU0W5tZdfaIZFFhfbx3Legz7n3YTRFSqM86BPVUQfe6NuSkozB7MnJDixzgeWa
V5zKs8t4nMMWlc6/l5XCsChShO8BDtVsnvAK4lVTF/yyBOqknKlidrLz3M8qZNix
eXm7jqJadpG8FEqXh2Z0gyaLII1TaNRkepLR3j6BBO3M5vlADlJyEdXbrQiWx3e5
syNEUX70/8FoOJg3nR9QK/Kn4FfMlcrBb6dJlQS40OeasbnaYo/bvGcqKYc/yxvE
LDeZKk5aFG+IgLOKc0Ll975UCKr7MkK7QdbcFmjcHQkWCXfcUf/B+08sKSikZYgy
R1gTdrHwrDKUa4kLiNSrrGPnHeK4C0XnFMrT4FbSADRoOdzD8dXdd+GI/jGLHR5z
Yi99pjGJhxt4PCe4KLgS2AAy78/WPJSMAsL77e/RcCFSxeEJZz8B/yUTKn852ZbA
xkc0cVvJV2Snf+hhdesgkugq65FKz+f7GSwO4cZzqgV/3/+26vtAw0rtXGtY/kXd
rMeRG7lfmrHKGkQ+hYM6yByPqCbAXFLM4+qvpNgSRmJraaPZEADV0whI9SCiygzl
7uzr2B/BxSpoK2jdUcH2vi6zAgMBAAGjgY8wgYwwHwYDVR0jBBgwFoAUtL+TmAct
elBMO5O5zC4O2NxbO7gwCQYDVR0TBAIwADALBgNVHQ8EBAMCB4AwEwYDVR0lBAww
CgYIKwYBBQUHAwMwPAYDVR0fBDUwMzAxoC+gLYYraHR0cHM6Ly9vcGVueml0aS5n
aXRodWIuaW8vY3JsL29wZW56aXRpLmNybDANBgkqhkiG9w0BAQsFAAOCAgEADKIz
486FdZMk2yUyVPtiUKCr46OfV1Avopzv2ZiXxW+xiePwf1btWTQiJUxAFSZwhDps
YJF5A+rCqw3XI/WXQ0Q20OApZc+pWg7kALI1pP+kBtwf0gTqEVHohHQonXTDBa1T
uiMh02I60Pddoi9of/2UWuvzK3v+GwG6Ri7XnfE+OKkOtpwsi52FvEYbSz0LBu40
pnl7JywRW+qkkn9Vb1bZCyGpyBAjkt9mbL3jm7kLQGEhr3+xzf3syqOFIQns0j67
qqBAHcexLvX2aI3zUoCYtZzefGAcWjFoiUL1xkR2C5peQ6bywJ7we/FVBQ6XOe1K
zSI+2wvaRCtIYn0nmJFfXT3F9GG2crmH4iUn6p23iNZdkM9Pzc865STyIfeLBy5h
SvqTP1bOqle/gAqB8rofvziYdJvsvLYfeGjsubreSB4DPaWk8DtDyDfhpm/Lv09b
5GVXED34vANJOCAIFvmLk6u9srP+Ks/HyX5TNaJHSld9EpCZyu3EpCpmuM0Ut8is
1efTyE8rcmPvyeMf91+GJNdOcDqCWICF/AcwrhqGvqfW0NniRBMZ9tagnX6HfQP2
hRZqJCOT6M7b42P/3WwKGx7oV/ekwracheDzGlwxsDpt/i8dL6Nzn/kUU+oEW46/
GdGwLlLZbyIixSkJaNqQURQVoE8uuuVB9u89gMA=
-----END CERTIFICATE-----
