Certificate:
    Data:
        Version: 3 (0x2)
        Serial Number: 4098 (0x1002)
        Signature Algorithm: sha256WithRSAEncryption
        Issuer: CN=Root Signing CA, O=openziti.org Inc, OU=adv-dev, C=US, ST=NC
        Validity
            Not Before: Jun  2 15:54:04 2021 GMT
            Not After : Jun  4 15:54:04 2024 GMT
        Subject: C=US, ST=NC, O=openziti.org Inc, OU=adv-dev, CN=Code Signing Certificate 2021
        Subject Public Key Info:
            Public Key Algorithm: rsaEncryption
                RSA Public-Key: (4096 bit)
                Modulus:
                    00:c2:98:35:f3:aa:91:30:b8:85:73:8c:0b:64:96:
                    01:94:b5:c1:93:84:4a:64:00:a7:fe:5f:72:7f:9f:
                    7e:39:4c:9f:1f:65:d2:fe:7a:bc:af:a7:94:e5:3b:
                    fb:63:64:ca:72:cd:04:cf:f8:fe:f3:3b:0d:15:dc:
                    d7:a4:61:15:b6:81:01:0a:3b:26:d4:c7:cc:af:87:
                    82:ca:32:61:12:11:ff:80:ca:40:91:ed:1e:03:aa:
                    c9:95:78:e8:5e:a7:b1:7b:95:7b:22:04:78:4b:68:
                    a3:00:ed:3d:74:c3:85:0e:0a:fd:29:0a:26:39:45:
                    27:eb:dc:70:38:45:2b:f0:9c:6e:c3:13:8e:e2:32:
                    79:03:bc:4e:8b:37:f7:ba:4f:8f:f5:15:b2:19:3d:
                    84:5a:42:66:87:dd:8b:39:c2:74:a4:fc:27:5b:28:
                    77:3d:1b:1b:18:e0:11:4b:31:ca:5a:8b:43:20:4a:
                    eb:2b:37:75:dd:10:11:59:d6:1a:9c:ce:d0:17:91:
                    c5:bb:65:b2:d3:0a:8c:28:76:de:64:5d:77:42:0e:
                    2b:f4:df:cc:16:f4:ba:3a:7b:14:37:92:e2:10:3a:
                    e7:57:1d:93:75:86:d4:37:24:21:94:c6:2a:31:1d:
                    e6:43:22:f5:52:ac:bd:5f:c7:65:c8:9d:08:07:d2:
                    26:d4:a2:bd:eb:23:9b:f7:14:7e:d7:de:a7:e3:10:
                    a8:4f:13:3a:c7:65:2f:57:af:ff:d6:e7:e7:7e:76:
                    51:2c:15:b9:19:63:80:9e:1c:96:57:8b:d9:54:36:
                    b0:10:eb:71:8e:88:fa:65:e2:20:6f:26:90:af:90:
                    d8:ba:2e:ff:87:5b:ce:8e:95:73:54:65:11:ce:2c:
                    28:48:82:e9:ef:13:29:83:f3:50:6e:6f:d8:28:2e:
                    11:0e:b1:9c:5c:36:33:c4:ff:33:4d:17:82:28:85:
                    bd:bc:f1:02:55:6e:c3:a0:eb:89:79:fb:45:b3:a6:
                    75:13:7a:69:80:00:92:58:0c:d1:50:f6:e7:83:95:
                    15:00:02:48:14:92:b7:b1:23:12:30:45:4b:e7:1b:
                    f4:47:28:24:3a:1c:43:d8:eb:0f:f0:88:ec:88:9f:
                    eb:e5:b9:c9:f1:2d:f4:8f:9d:0d:a2:0f:cf:2b:9b:
                    50:55:1c:79:be:51:98:67:29:d3:68:1a:0f:6c:1f:
                    d1:b0:95:ef:55:ce:e9:30:5c:6f:86:b2:ac:51:21:
                    c2:9a:29:db:1f:ed:02:5e:7e:09:e8:f5:15:91:6a:
                    88:a2:1b:70:06:60:44:30:21:5a:d8:e4:3d:1a:2b:
                    f2:54:eb:e2:06:8a:d5:de:c0:87:36:73:c9:c5:11:
                    d6:ea:df
                Exponent: 65537 (0x10001)
        X509v3 extensions:
            X509v3 Authority Key Identifier: 
                keyid:2F:30:6F:52:D5:CF:8F:47:B7:59:25:E2:34:47:A1:B9:67:41:CF:64

            X509v3 Basic Constraints: 
                CA:FALSE
            X509v3 Key Usage: 
                Digital Signature
            X509v3 Extended Key Usage: 
                Code Signing
            Netscape CA Revocation Url: 
                https://openziti.github.io/crl/revoked.pem
            Netscape Revocation Url: 
                https://openziti.github.io/crl/revoked.pem
    Signature Algorithm: sha256WithRSAEncryption
         a2:10:1b:58:e2:45:a9:b6:a0:c8:a9:a4:f0:33:9b:cb:4b:cb:
         ad:92:54:d5:ed:cc:37:76:8e:10:7a:7a:48:66:fb:38:4c:b2:
         d5:09:94:b9:be:67:bc:d9:bf:d4:8d:0e:3d:e3:60:e2:0e:36:
         b2:f7:5f:af:6e:b1:3c:1f:f5:b0:12:50:73:5a:7b:74:eb:b1:
         44:42:e5:e0:d6:58:4a:84:bc:de:97:00:66:32:c7:34:8b:6c:
         49:7b:5c:24:4b:15:7b:a9:7d:38:9b:3d:fe:af:b4:b4:0b:4e:
         f0:e9:03:1b:5a:69:c0:9e:3b:f9:8e:f4:91:c8:a3:79:13:c9:
         e5:b3:4d:13:f3:0e:c2:cb:0a:ed:a9:a7:c7:ca:bf:e8:8a:60:
         83:72:84:b3:76:18:70:d6:41:2c:50:98:65:b0:30:8e:14:ad:
         7d:3a:f9:d9:43:91:53:5a:b1:64:ec:38:57:68:ce:bf:a4:d0:
         f7:b3:6c:69:40:df:fd:44:b1:5f:e6:2f:3a:1e:c8:c8:a7:4e:
         ab:36:41:21:c1:d4:eb:f5:be:4a:de:ff:bc:82:48:9e:40:a6:
         ee:14:f2:c1:60:9a:1c:11:a7:6b:a3:63:91:7e:5f:a5:22:0a:
         89:b1:d1:97:ba:bd:ac:f3:2e:d6:71:bd:e6:7f:81:38:f5:58:
         23:a8:47:ba:bf:f1:3f:d3:a6:cb:b8:d1:76:81:64:fd:a0:3b:
         ea:1b:89:12:ec:6d:a6:49:06:3d:2f:33:ef:3a:3d:73:c8:ef:
         1a:3a:84:5b:f1:ae:cd:1a:74:82:23:58:6a:22:53:d3:45:d6:
         34:a4:97:4e:9b:9e:e3:7e:3d:8e:28:86:24:b3:13:25:cd:fb:
         ff:98:44:0e:7a:5b:07:fc:74:6a:12:23:5f:3e:3d:ce:51:1b:
         b7:23:eb:88:25:eb:80:db:47:fa:5d:20:b2:e4:26:58:2c:7f:
         b5:be:93:3d:63:a3:c5:cf:da:f8:44:16:1a:56:13:aa:06:98:
         41:5c:84:4e:1c:9a:1d:a5:a3:6c:f0:82:a3:41:11:3c:78:13:
         61:f9:fe:33:c8:75:8d:95:4c:2b:e5:bc:9e:f2:f5:8d:f6:7b:
         0d:ec:a3:5a:f9:20:de:fd:6c:f4:29:f1:81:2a:49:e9:0a:6b:
         a2:1f:0b:18:0b:7f:26:8c:68:22:d3:03:02:3f:bb:ed:32:7e:
         96:45:75:2b:f2:29:23:03:aa:e6:17:d1:dc:0d:a4:db:9f:19:
         39:88:5a:ef:5c:41:b3:d6:60:42:fd:6c:0f:af:8f:e2:b7:68:
         62:52:62:8a:a4:93:74:69:de:30:f6:f6:fe:8d:16:a3:4b:eb:
         e1:8f:c4:b8:51:3e:02:3c
-----BEGIN CERTIFICATE-----
MIIGFDCCA/ygAwIBAgICEAIwDQYJKoZIhvcNAQELBQAwYTEYMBYGA1UEAwwPUm9v
dCBTaWduaW5nIENBMRkwFwYDVQQKDBBvcGVueml0aS5vcmcgSW5jMRAwDgYDVQQL
DAdhZHYtZGV2MQswCQYDVQQGEwJVUzELMAkGA1UECAwCTkMwHhcNMjEwNjAyMTU1
NDA0WhcNMjQwNjA0MTU1NDA0WjBvMQswCQYDVQQGEwJVUzELMAkGA1UECAwCTkMx
GTAXBgNVBAoMEG9wZW56aXRpLm9yZyBJbmMxEDAOBgNVBAsMB2Fkdi1kZXYxJjAk
BgNVBAMMHUNvZGUgU2lnbmluZyBDZXJ0aWZpY2F0ZSAyMDIxMIICIjANBgkqhkiG
9w0BAQEFAAOCAg8AMIICCgKCAgEAwpg186qRMLiFc4wLZJYBlLXBk4RKZACn/l9y
f59+OUyfH2XS/nq8r6eU5Tv7Y2TKcs0Ez/j+8zsNFdzXpGEVtoEBCjsm1MfMr4eC
yjJhEhH/gMpAke0eA6rJlXjoXqexe5V7IgR4S2ijAO09dMOFDgr9KQomOUUn69xw
OEUr8JxuwxOO4jJ5A7xOizf3uk+P9RWyGT2EWkJmh92LOcJ0pPwnWyh3PRsbGOAR
SzHKWotDIErrKzd13RARWdYanM7QF5HFu2Wy0wqMKHbeZF13Qg4r9N/MFvS6OnsU
N5LiEDrnVx2TdYbUNyQhlMYqMR3mQyL1Uqy9X8dlyJ0IB9Im1KK96yOb9xR+196n
4xCoTxM6x2UvV6//1ufnfnZRLBW5GWOAnhyWV4vZVDawEOtxjoj6ZeIgbyaQr5DY
ui7/h1vOjpVzVGURziwoSILp7xMpg/NQbm/YKC4RDrGcXDYzxP8zTReCKIW9vPEC
VW7DoOuJeftFs6Z1E3ppgACSWAzRUPbng5UVAAJIFJK3sSMSMEVL5xv0RygkOhxD
2OsP8IjsiJ/r5bnJ8S30j50Nog/PK5tQVRx5vlGYZynTaBoPbB/RsJXvVc7pMFxv
hrKsUSHCminbH+0CXn4J6PUVkWqIohtwBmBEMCFa2OQ9GivyVOviBorV3sCHNnPJ
xRHW6t8CAwEAAaOBxzCBxDAfBgNVHSMEGDAWgBQvMG9S1c+PR7dZJeI0R6G5Z0HP
ZDAJBgNVHRMEAjAAMAsGA1UdDwQEAwIHgDATBgNVHSUEDDAKBggrBgEFBQcDAzA5
BglghkgBhvhCAQQELBYqaHR0cHM6Ly9vcGVueml0aS5naXRodWIuaW8vY3JsL3Jl
dm9rZWQucGVtMDkGCWCGSAGG+EIBAwQsFipodHRwczovL29wZW56aXRpLmdpdGh1
Yi5pby9jcmwvcmV2b2tlZC5wZW0wDQYJKoZIhvcNAQELBQADggIBAKIQG1jiRam2
oMippPAzm8tLy62SVNXtzDd2jhB6ekhm+zhMstUJlLm+Z7zZv9SNDj3jYOIONrL3
X69usTwf9bASUHNae3TrsURC5eDWWEqEvN6XAGYyxzSLbEl7XCRLFXupfTibPf6v
tLQLTvDpAxtaacCeO/mO9JHIo3kTyeWzTRPzDsLLCu2pp8fKv+iKYINyhLN2GHDW
QSxQmGWwMI4UrX06+dlDkVNasWTsOFdozr+k0PezbGlA3/1EsV/mLzoeyMinTqs2
QSHB1Ov1vkre/7yCSJ5Apu4U8sFgmhwRp2ujY5F+X6UiComx0Ze6vazzLtZxveZ/
gTj1WCOoR7q/8T/Tpsu40XaBZP2gO+obiRLsbaZJBj0vM+86PXPI7xo6hFvxrs0a
dIIjWGoiU9NF1jSkl06bnuN+PY4ohiSzEyXN+/+YRA56Wwf8dGoSI18+Pc5RG7cj
64gl64DbR/pdILLkJlgsf7W+kz1jo8XP2vhEFhpWE6oGmEFchE4cmh2lo2zwgqNB
ETx4E2H5/jPIdY2VTCvlvJ7y9Y32ew3so1r5IN79bPQp8YEqSekKa6IfCxgLfyaM
aCLTAwI/u+0yfpZFdSvyKSMDquYX0dwNpNufGTmIWu9cQbPWYEL9bA+vj+K3aGJS
Yoqkk3Rp3jD29v6NFqNL6+GPxLhRPgI8
-----END CERTIFICATE-----
