Certificate:
    Data:
        Version: 3 (0x2)
        Serial Number: 4096 (0x1000)
        Signature Algorithm: sha256WithRSAEncryption
        Issuer: CN=Root Signing CA, O=openziti.org Inc, OU=adv-dev, C=US, ST=NC
        Validity
            Not Before: Jun  2 17:25:12 2021 GMT
            Not After : Jun  4 17:25:12 2024 GMT
        Subject: C=US, ST=NC, O=openziti.org Inc, OU=adv-dev, CN=Code Signing Certificate 2021
        Subject Public Key Info:
            Public Key Algorithm: rsaEncryption
                RSA Public-Key: (4096 bit)
                Modulus:
                    00:bd:b0:9a:34:20:27:04:91:88:09:ef:28:15:a2:
                    79:2c:95:3f:96:62:1d:90:8a:2e:2b:aa:68:0c:a6:
                    0f:b5:8d:e3:4d:71:9b:85:75:9f:3c:8d:fb:93:7c:
                    d2:7f:e7:13:c7:b3:6a:1b:09:c8:4d:63:85:9a:37:
                    24:d8:c9:dd:c7:14:d1:6e:6d:65:d7:da:21:91:45:
                    85:f6:f1:dc:b7:a0:cf:b9:f7:61:34:45:4a:a3:3c:
                    e8:13:d5:51:07:de:e8:db:92:92:8c:c1:ec:c9:c9:
                    0e:2c:73:81:e5:9a:57:9c:ca:b3:cb:78:9c:c3:16:
                    95:ce:bf:97:95:c2:b0:28:52:84:ef:01:0e:d5:6c:
                    9e:f0:0a:e2:55:53:17:fc:b2:04:ea:a4:9c:a9:62:
                    76:b2:f3:dc:cf:2a:64:d8:b1:79:79:bb:8e:a2:5a:
                    76:91:bc:14:4a:97:87:66:74:83:26:8b:20:8d:53:
                    68:d4:64:7a:92:d1:de:3e:81:04:ed:cc:e6:f9:40:
                    0e:52:72:11:d5:db:ad:08:96:c7:77:b9:b3:23:44:
                    51:7e:f4:ff:c1:68:38:98:37:9d:1f:50:2b:f2:a7:
                    e0:57:cc:95:ca:c1:6f:a7:49:95:04:b8:d0:e7:9a:
                    b1:b9:da:62:8f:db:bc:67:2a:29:87:3f:cb:1b:c4:
                    2c:37:99:2a:4e:5a:14:6f:88:80:b3:8a:73:42:e5:
                    f7:be:54:08:aa:fb:32:42:bb:41:d6:dc:16:68:dc:
                    1d:09:16:09:77:dc:51:ff:c1:fb:4f:2c:29:28:a4:
                    65:88:32:47:58:13:76:b1:f0:ac:32:94:6b:89:0b:
                    88:d4:ab:ac:63:e7:1d:e2:b8:0b:45:e7:14:ca:d3:
                    e0:56:d2:00:34:68:39:dc:c3:f1:d5:dd:77:e1:88:
                    fe:31:8b:1d:1e:73:62:2f:7d:a6:31:89:87:1b:78:
                    3c:27:b8:28:b8:12:d8:00:32:ef:cf:d6:3c:94:8c:
                    02:c2:fb:ed:ef:d1:70:21:52:c5:e1:09:67:3f:01:
                    ff:25:13:2a:7f:39:d9:96:c0:c6:47:34:71:5b:c9:
                    57:64:a7:7f:e8:61:75:eb:20:92:e8:2a:eb:91:4a:
                    cf:e7:fb:19:2c:0e:e1:c6:73:aa:05:7f:df:ff:b6:
                    ea:fb:40:c3:4a:ed:5c:6b:58:fe:45:dd:ac:c7:91:
                    1b:b9:5f:9a:b1:ca:1a:44:3e:85:83:3a:c8:1c:8f:
                    a8:26:c0:5c:52:cc:e3:ea:af:a4:d8:12:46:62:6b:
                    69:a3:d9:10:00:d5:d3:08:48:f5:20:a2:ca:0c:e5:
                    ee:ec:eb:d8:1f:c1:c5:2a:68:2b:68:dd:51:c1:f6:
                    be:2e:b3
                Exponent: 65537 (0x10001)
        X509v3 extensions:
            X509v3 Authority Key Identifier: 
                keyid:B4:BF:93:98:07:2D:7A:50:4C:3B:93:B9:CC:2E:0E:D8:DC:5B:3B:B8

            X509v3 Basic Constraints: 
                CA:FALSE
            X509v3 Key Usage: 
                Digital Signature
            X509v3 Extended Key Usage: 
                Code Signing
            Netscape CA Revocation Url: 
                https://openziti.github.io/crl/openziti.crl
            Netscape Revocation Url: 
                https://openziti.github.io/crl/openziti.crl
    Signature Algorithm: sha256WithRSAEncryption
         4b:22:76:62:a0:79:6c:63:b0:b9:0d:8e:06:fd:0f:c9:a4:35:
         e8:0b:ab:6c:fa:d8:df:c4:0b:53:20:64:bc:ad:29:4a:d0:a9:
         d2:64:63:c9:82:73:62:6b:2e:67:64:00:38:51:06:c9:cc:60:
         44:2b:ad:47:0a:f1:65:68:9a:08:e2:a2:3b:bc:59:a4:8e:b2:
         ec:54:b3:34:9f:36:b6:e0:9e:35:38:5c:48:c9:d5:bc:38:63:
         fd:b7:7d:e6:85:df:2f:52:3f:53:2b:5e:51:76:12:9e:15:e3:
         f9:2b:ff:7d:91:d2:e3:9e:1d:c2:55:fc:1c:24:4f:d2:75:4a:
         31:6a:a8:1b:d1:6f:85:64:95:21:3c:ad:a7:e4:36:f9:20:8c:
         e0:96:ac:21:24:8d:8b:8c:a4:d2:96:40:30:3a:34:9f:09:7d:
         35:fc:24:be:6c:59:25:1b:49:11:20:13:01:5d:e8:2c:fa:36:
         c7:01:f8:65:a2:f9:ef:11:6f:3c:91:dd:c0:40:49:fa:d5:3c:
         9b:e2:1c:dd:e2:18:d9:b6:5a:43:47:ad:02:71:0f:7a:2a:2a:
         6c:27:23:0b:34:92:32:17:79:aa:c7:90:30:f0:3e:c4:4f:62:
         0d:cb:82:31:ce:29:83:f0:41:54:64:ae:dc:e4:21:c8:92:3a:
         4b:cd:8a:fb:69:9e:71:2a:1c:6e:5f:d3:60:23:42:29:85:73:
         8e:01:55:33:91:01:fb:d4:b2:5a:ad:b7:89:90:76:be:09:ae:
         90:4f:e4:b9:ed:1a:22:d4:26:f8:1e:1d:33:e8:64:7f:89:fa:
         22:c5:cf:76:61:2c:03:82:ab:63:af:6f:ad:cc:fc:f9:33:a4:
         7e:b0:95:c9:07:e0:c4:d2:31:85:b5:8d:1b:22:f5:60:f6:14:
         90:80:6d:f0:ab:b4:19:d1:5b:27:bd:0f:84:52:44:86:b9:be:
         6a:60:87:fe:29:e0:b1:6c:6c:fb:14:f9:5d:4c:f2:9b:66:b2:
         f0:66:29:8d:ba:ca:72:98:e2:b4:4d:df:f8:c7:e9:6e:36:a1:
         c8:19:ba:db:6b:81:44:3d:69:11:ed:da:55:f1:e6:af:9d:1e:
         19:3d:cf:86:90:4b:14:31:e3:82:52:30:97:11:1f:f2:fb:0d:
         be:4c:53:ca:f8:e4:2e:db:d4:dc:60:01:45:f2:84:76:bf:ce:
         da:11:b5:15:f2:8d:e3:75:10:15:cc:8a:1c:61:65:59:6e:27:
         d7:6b:5d:aa:eb:27:4e:8a:86:b4:77:bf:47:43:28:52:1b:61:
         99:e9:fc:33:ba:bc:6a:4b:f2:a2:ca:f0:58:21:5d:3b:8c:6d:
         9f:19:e1:32:59:24:a2:84
-----BEGIN CERTIFICATE-----
MIIGFjCCA/6gAwIBAgICEAAwDQYJKoZIhvcNAQELBQAwYTEYMBYGA1UEAwwPUm9v
dCBTaWduaW5nIENBMRkwFwYDVQQKDBBvcGVueml0aS5vcmcgSW5jMRAwDgYDVQQL
DAdhZHYtZGV2MQswCQYDVQQGEwJVUzELMAkGA1UECAwCTkMwHhcNMjEwNjAyMTcy
NTEyWhcNMjQwNjA0MTcyNTEyWjBvMQswCQYDVQQGEwJVUzELMAkGA1UECAwCTkMx
GTAXBgNVBAoMEG9wZW56aXRpLm9yZyBJbmMxEDAOBgNVBAsMB2Fkdi1kZXYxJjAk
BgNVBAMMHUNvZGUgU2lnbmluZyBDZXJ0aWZpY2F0ZSAyMDIxMIICIjANBgkqhkiG
9w0BAQEFAAOCAg8AMIICCgKCAgEAvbCaNCAnBJGICe8oFaJ5LJU/lmIdkIouK6po
DKYPtY3jTXGbhXWfPI37k3zSf+cTx7NqGwnITWOFmjck2MndxxTRbm1l19ohkUWF
9vHct6DPufdhNEVKozzoE9VRB97o25KSjMHsyckOLHOB5ZpXnMqzy3icwxaVzr+X
lcKwKFKE7wEO1Wye8AriVVMX/LIE6qScqWJ2svPczypk2LF5ebuOolp2kbwUSpeH
ZnSDJosgjVNo1GR6ktHePoEE7czm+UAOUnIR1dutCJbHd7mzI0RRfvT/wWg4mDed
H1Ar8qfgV8yVysFvp0mVBLjQ55qxudpij9u8Zyophz/LG8QsN5kqTloUb4iAs4pz
QuX3vlQIqvsyQrtB1twWaNwdCRYJd9xR/8H7TywpKKRliDJHWBN2sfCsMpRriQuI
1KusY+cd4rgLRecUytPgVtIANGg53MPx1d134Yj+MYsdHnNiL32mMYmHG3g8J7go
uBLYADLvz9Y8lIwCwvvt79FwIVLF4QlnPwH/JRMqfznZlsDGRzRxW8lXZKd/6GF1
6yCS6CrrkUrP5/sZLA7hxnOqBX/f/7bq+0DDSu1ca1j+Rd2sx5EbuV+ascoaRD6F
gzrIHI+oJsBcUszj6q+k2BJGYmtpo9kQANXTCEj1IKLKDOXu7OvYH8HFKmgraN1R
wfa+LrMCAwEAAaOByTCBxjAfBgNVHSMEGDAWgBS0v5OYBy16UEw7k7nMLg7Y3Fs7
uDAJBgNVHRMEAjAAMAsGA1UdDwQEAwIHgDATBgNVHSUEDDAKBggrBgEFBQcDAzA6
BglghkgBhvhCAQQELRYraHR0cHM6Ly9vcGVueml0aS5naXRodWIuaW8vY3JsL29w
ZW56aXRpLmNybDA6BglghkgBhvhCAQMELRYraHR0cHM6Ly9vcGVueml0aS5naXRo
dWIuaW8vY3JsL29wZW56aXRpLmNybDANBgkqhkiG9w0BAQsFAAOCAgEASyJ2YqB5
bGOwuQ2OBv0PyaQ16AurbPrY38QLUyBkvK0pStCp0mRjyYJzYmsuZ2QAOFEGycxg
RCutRwrxZWiaCOKiO7xZpI6y7FSzNJ82tuCeNThcSMnVvDhj/bd95oXfL1I/Uyte
UXYSnhXj+Sv/fZHS454dwlX8HCRP0nVKMWqoG9FvhWSVITytp+Q2+SCM4JasISSN
i4yk0pZAMDo0nwl9NfwkvmxZJRtJESATAV3oLPo2xwH4ZaL57xFvPJHdwEBJ+tU8
m+Ic3eIY2bZaQ0etAnEPeioqbCcjCzSSMhd5qseQMPA+xE9iDcuCMc4pg/BBVGSu
3OQhyJI6S82K+2mecSocbl/TYCNCKYVzjgFVM5EB+9SyWq23iZB2vgmukE/kue0a
ItQm+B4dM+hkf4n6IsXPdmEsA4KrY69vrcz8+TOkfrCVyQfgxNIxhbWNGyL1YPYU
kIBt8Ku0GdFbJ70PhFJEhrm+amCH/ingsWxs+xT5XUzym2ay8GYpjbrKcpjitE3f
+MfpbjahyBm622uBRD1pEe3aVfHmr50eGT3PhpBLFDHjglIwlxEf8vsNvkxTyvjk
LtvU3GABRfKEdr/O2hG1FfKN43UQFcyKHGFlWW4n12tdqusnToqGtHe/R0MoUhth
men8M7q8akvyosrwWCFdO4xtnxnhMlkkooQ=
-----END CERTIFICATE-----
