Certificate:
    Data:
        Version: 3 (0x2)
        Serial Number: 4096 (0x1000)
        Signature Algorithm: sha256WithRSAEncryption
        Issuer: CN=Root Signing CA, O=openziti.org Inc, OU=adv-dev, C=US, ST=NC
        Validity
            Not Before: Jun  2 11:57:08 2021 GMT
            Not After : Jun  4 11:57:08 2024 GMT
        Subject: C=US, ST=NC, O=openziti.org Inc, OU=adv-dev, CN=Code Signing Certificate 2021
        Subject Public Key Info:
            Public Key Algorithm: rsaEncryption
                RSA Public-Key: (4096 bit)
                Modulus:
                    00:b2:74:a8:65:62:85:3c:8c:81:a3:1c:5a:ee:9e:
                    e4:d1:51:96:b4:40:53:19:4e:66:87:fc:c2:a1:d9:
                    28:02:59:75:aa:4d:6a:f9:7f:9c:11:f9:38:55:21:
                    ef:b4:8a:6f:03:75:a0:59:ed:86:2d:5e:7f:d7:17:
                    e6:43:15:3b:da:eb:a0:2c:53:1a:e4:1c:f0:19:68:
                    80:c1:0f:0b:cc:c4:5d:c6:2e:51:84:de:2f:a5:ca:
                    eb:3a:75:52:7b:54:33:3a:5b:7c:00:ae:0c:82:70:
                    ee:07:6e:8e:6b:fc:50:b7:2d:19:2e:dd:08:be:9f:
                    e0:d2:91:5a:1e:ae:85:16:93:b5:50:65:ac:6d:42:
                    5b:62:44:45:39:26:ad:24:16:1c:3b:02:32:31:dd:
                    30:c0:05:11:6e:7f:b1:68:4e:70:61:ab:72:ca:6c:
                    e8:f6:bf:44:46:36:09:5f:4b:3a:b7:89:d7:fa:57:
                    f1:38:c0:ba:c0:60:cf:7c:a9:8b:47:00:9c:7a:44:
                    4e:34:c4:2a:20:85:8f:23:c0:2d:67:4f:a0:35:42:
                    e2:ec:9a:3a:47:1d:13:0e:4f:94:51:71:52:76:10:
                    d2:3a:02:3e:bf:5a:45:96:9d:2f:ec:b2:ef:2e:b7:
                    04:d4:ba:53:1f:a7:81:a8:1a:52:fa:c6:d3:38:57:
                    72:88:d3:0a:3f:a1:28:2b:62:d0:7f:35:1d:89:ae:
                    0f:a1:30:a4:43:b2:82:e6:6c:4a:c2:f3:83:2d:24:
                    43:5b:d6:7a:40:ab:2e:1e:d6:6e:9b:8d:28:18:3e:
                    a3:61:4a:d0:20:6f:d4:e2:3d:3f:75:be:22:cc:67:
                    5d:36:79:27:77:e6:e1:4e:b5:51:51:56:d6:98:8b:
                    c6:6b:1d:33:ca:36:74:f6:eb:d5:07:84:f2:09:bb:
                    0a:6d:3d:44:69:00:69:3f:35:f5:cb:17:1e:1b:aa:
                    68:d9:e6:2d:09:ef:cb:03:87:e6:4d:0b:d3:5c:31:
                    72:86:30:0d:66:db:bd:de:b6:43:b7:12:2b:37:d0:
                    ac:47:93:2f:4a:12:6f:85:93:56:0e:f8:e3:8e:f1:
                    08:85:cd:93:19:7c:8d:69:24:32:cf:15:85:6a:94:
                    cb:2c:c8:cf:a6:bc:68:91:82:dd:fb:f2:1d:29:25:
                    7c:b3:9c:c0:1d:e1:09:fe:e6:04:14:65:72:08:a9:
                    48:09:e4:47:21:f1:cf:c7:fe:58:da:ca:9b:24:6f:
                    8a:fa:ff:1e:14:cb:ec:77:66:fa:c1:10:65:01:29:
                    7e:e7:ce:95:fd:42:1d:11:56:07:96:10:7c:de:ea:
                    37:71:3b:25:b6:d4:8f:cd:22:71:b8:85:1d:34:58:
                    90:fc:e5
                Exponent: 65537 (0x10001)
        X509v3 extensions:
            X509v3 Authority Key Identifier: 
                keyid:DB:FC:C0:F1:79:F4:55:C6:F1:CE:DD:78:41:95:31:03:99:06:9B:BD

            X509v3 Basic Constraints: 
                CA:FALSE
            X509v3 Key Usage: 
                Digital Signature
            X509v3 Extended Key Usage: 
                Code Signing
            Netscape CA Revocation Url: 
                https://openziti.github.io/crl/revoked.pem
            Netscape Revocation Url: 
                https://openziti.github.io/crl/revoked.pem
    Signature Algorithm: sha256WithRSAEncryption
         05:0d:d1:06:f7:6a:c5:71:f4:eb:ea:af:de:09:f9:e6:bc:58:
         fb:02:53:80:15:c3:7e:34:b8:2c:04:46:22:7a:b8:73:e8:68:
         8e:b8:7b:3a:31:31:6c:e0:32:2e:01:87:b5:ad:d9:b7:24:1b:
         ba:d7:5f:41:87:98:ca:c6:c1:0a:45:8d:77:53:f7:0a:fa:4d:
         26:4e:95:be:db:a1:48:4f:1e:10:a5:65:20:6d:87:fc:5b:17:
         67:ba:bc:d3:5c:d9:a5:ad:50:f6:cb:0b:9d:7f:48:29:a4:7d:
         90:76:02:b5:f7:5a:96:ba:32:01:6f:83:2b:4a:3f:6b:41:10:
         5c:93:49:f9:65:6f:15:36:1b:1a:ed:52:cb:6f:8c:94:cc:9a:
         4c:70:1c:19:b8:24:bf:66:3e:59:53:48:5f:e0:f3:99:26:18:
         29:85:97:0d:52:e8:cd:09:5c:b2:10:4b:fd:34:75:2d:c6:a4:
         05:e9:99:76:82:c5:8d:64:5e:43:32:09:73:d6:0a:2f:6b:dd:
         bc:fe:52:06:6d:43:07:1c:3a:b6:a1:24:8b:81:f5:3a:ff:f7:
         30:5d:7d:0a:c6:d2:d5:af:25:9b:51:ed:0d:82:1c:79:cb:c1:
         b7:e3:74:5d:d4:10:8d:3b:94:5d:ca:17:64:f9:0f:71:64:af:
         13:ba:ab:01:b8:e3:97:cb:5c:b0:b0:82:e8:f3:98:43:4a:7d:
         21:dd:fb:fe:e8:09:cc:21:26:b6:4d:bb:c9:6a:2f:fc:28:b1:
         8c:50:f5:7d:f2:e6:fe:87:f0:3b:9c:83:59:a4:1d:6e:c1:d4:
         a6:e6:55:78:c1:d6:1a:fc:c1:21:97:8a:13:32:5d:c4:16:58:
         7d:4b:f2:7c:2e:a7:3e:cc:55:4c:5d:db:25:9d:21:38:92:79:
         30:65:8e:29:b8:f3:86:5a:d8:c5:97:d0:a2:c8:20:f5:91:c9:
         ad:ad:b2:f8:e1:0c:d9:77:af:e3:96:6b:6a:4d:03:6b:df:60:
         0d:8f:37:83:ec:64:93:c1:61:93:91:b6:79:69:b1:48:13:4d:
         80:9e:22:4e:6e:a9:9e:09:aa:a9:cb:bd:24:0a:32:5a:69:83:
         a6:7f:c9:29:13:18:4b:08:34:5c:6b:d8:9b:56:b0:ec:56:90:
         ba:de:7e:cf:aa:47:f7:b5:2b:73:21:2a:20:16:74:8e:93:cd:
         db:ef:00:e9:4d:6e:c6:29:ef:82:84:e0:34:a5:df:a3:a3:41:
         8c:b4:be:e2:5f:5d:25:e1:6b:84:94:35:05:b4:03:24:43:bb:
         12:fd:8f:56:01:16:cc:6b:14:79:1a:43:78:14:0e:12:bb:46:
         43:e4:9f:91:52:9f:29:a0
-----BEGIN CERTIFICATE-----
MIIGFDCCA/ygAwIBAgICEAAwDQYJKoZIhvcNAQELBQAwYTEYMBYGA1UEAwwPUm9v
dCBTaWduaW5nIENBMRkwFwYDVQQKDBBvcGVueml0aS5vcmcgSW5jMRAwDgYDVQQL
DAdhZHYtZGV2MQswCQYDVQQGEwJVUzELMAkGA1UECAwCTkMwHhcNMjEwNjAyMTE1
NzA4WhcNMjQwNjA0MTE1NzA4WjBvMQswCQYDVQQGEwJVUzELMAkGA1UECAwCTkMx
GTAXBgNVBAoMEG9wZW56aXRpLm9yZyBJbmMxEDAOBgNVBAsMB2Fkdi1kZXYxJjAk
BgNVBAMMHUNvZGUgU2lnbmluZyBDZXJ0aWZpY2F0ZSAyMDIxMIICIjANBgkqhkiG
9w0BAQEFAAOCAg8AMIICCgKCAgEAsnSoZWKFPIyBoxxa7p7k0VGWtEBTGU5mh/zC
odkoAll1qk1q+X+cEfk4VSHvtIpvA3WgWe2GLV5/1xfmQxU72uugLFMa5BzwGWiA
wQ8LzMRdxi5RhN4vpcrrOnVSe1QzOlt8AK4MgnDuB26Oa/xQty0ZLt0Ivp/g0pFa
Hq6FFpO1UGWsbUJbYkRFOSatJBYcOwIyMd0wwAURbn+xaE5wYatyymzo9r9ERjYJ
X0s6t4nX+lfxOMC6wGDPfKmLRwCcekRONMQqIIWPI8AtZ0+gNULi7Jo6Rx0TDk+U
UXFSdhDSOgI+v1pFlp0v7LLvLrcE1LpTH6eBqBpS+sbTOFdyiNMKP6EoK2LQfzUd
ia4PoTCkQ7KC5mxKwvODLSRDW9Z6QKsuHtZum40oGD6jYUrQIG/U4j0/db4izGdd
Nnknd+bhTrVRUVbWmIvGax0zyjZ09uvVB4TyCbsKbT1EaQBpPzX1yxceG6po2eYt
Ce/LA4fmTQvTXDFyhjANZtu93rZDtxIrN9CsR5MvShJvhZNWDvjjjvEIhc2TGXyN
aSQyzxWFapTLLMjPprxokYLd+/IdKSV8s5zAHeEJ/uYEFGVyCKlICeRHIfHPx/5Y
2sqbJG+K+v8eFMvsd2b6wRBlASl+586V/UIdEVYHlhB83uo3cTslttSPzSJxuIUd
NFiQ/OUCAwEAAaOBxzCBxDAfBgNVHSMEGDAWgBTb/MDxefRVxvHO3XhBlTEDmQab
vTAJBgNVHRMEAjAAMAsGA1UdDwQEAwIHgDATBgNVHSUEDDAKBggrBgEFBQcDAzA5
BglghkgBhvhCAQQELBYqaHR0cHM6Ly9vcGVueml0aS5naXRodWIuaW8vY3JsL3Jl
dm9rZWQucGVtMDkGCWCGSAGG+EIBAwQsFipodHRwczovL29wZW56aXRpLmdpdGh1
Yi5pby9jcmwvcmV2b2tlZC5wZW0wDQYJKoZIhvcNAQELBQADggIBAAUN0Qb3asVx
9Ovqr94J+ea8WPsCU4AVw340uCwERiJ6uHPoaI64ezoxMWzgMi4Bh7Wt2bckG7rX
X0GHmMrGwQpFjXdT9wr6TSZOlb7boUhPHhClZSBth/xbF2e6vNNc2aWtUPbLC51/
SCmkfZB2ArX3Wpa6MgFvgytKP2tBEFyTSfllbxU2GxrtUstvjJTMmkxwHBm4JL9m
PllTSF/g85kmGCmFlw1S6M0JXLIQS/00dS3GpAXpmXaCxY1kXkMyCXPWCi9r3bz+
UgZtQwccOrahJIuB9Tr/9zBdfQrG0tWvJZtR7Q2CHHnLwbfjdF3UEI07lF3KF2T5
D3FkrxO6qwG445fLXLCwgujzmENKfSHd+/7oCcwhJrZNu8lqL/wosYxQ9X3y5v6H
8Ducg1mkHW7B1KbmVXjB1hr8wSGXihMyXcQWWH1L8nwupz7MVUxd2yWdITiSeTBl
jim484Za2MWX0KLIIPWRya2tsvjhDNl3r+OWa2pNA2vfYA2PN4PsZJPBYZORtnlp
sUgTTYCeIk5uqZ4JqqnLvSQKMlppg6Z/ySkTGEsINFxr2JtWsOxWkLrefs+qR/e1
K3MhKiAWdI6TzdvvAOlNbsYp74KE4DSl36OjQYy0vuJfXSXha4SUNQW0AyRDuxL9
j1YBFsxrFHkaQ3gUDhK7RkPkn5FSnymg
-----END CERTIFICATE-----
